target datalayout = "e-m:e-p270:32:32-p271:32:32-p272:64:64-i64:64-i128:128-f80:128-n8:16:32:64-S128"
target triple = "x86_64-pc-linux-gnu"

%"class.opencv_test::MatInfo_Size_Size_resizeUpLinear_resizeUpLinear_Test" = type <{ %"class.opencv_test::MatInfo_Size_Size_resizeUpLinear", i8, [7 x i8] }>
%"class.opencv_test::MatInfo_Size_Size_resizeUpLinear" = type { %"class.perf::TestBaseWithParam" }
%"class.perf::TestBaseWithParam" = type { %"class.perf::TestBase", %"class.testing::WithParamInterface" }
%"class.perf::TestBase" = type { %"class.testing::Test", %"class.std::vector", %"class.std::vector", i32, %"class.std::vector.0", i64, i64, i64, i32, i32, i32, i32, i32, [4 x i8], %"struct.perf::performance_metrics", i8, %"class.perf::TestBase::_declareHelper" }
%"class.testing::Test" = type { ptr, %"class.testing::internal::scoped_ptr" }
%"class.testing::internal::scoped_ptr" = type { ptr }
%"class.std::vector" = type { %"struct.std::_Vector_base" }
%"struct.std::_Vector_base" = type { %"struct.std::_Vector_base<std::pair<int, cv::Size_<int>>, std::allocator<std::pair<int, cv::Size_<int>>>>::_Vector_impl" }
%"struct.std::_Vector_base<std::pair<int, cv::Size_<int>>, std::allocator<std::pair<int, cv::Size_<int>>>>::_Vector_impl" = type { %"struct.std::_Vector_base<std::pair<int, cv::Size_<int>>, std::allocator<std::pair<int, cv::Size_<int>>>>::_Vector_impl_data" }
%"struct.std::_Vector_base<std::pair<int, cv::Size_<int>>, std::allocator<std::pair<int, cv::Size_<int>>>>::_Vector_impl_data" = type { ptr, ptr, ptr }
%"class.std::vector.0" = type { %"struct.std::_Vector_base.1" }
%"struct.std::_Vector_base.1" = type { %"struct.std::_Vector_base<long, std::allocator<long>>::_Vector_impl" }
%"struct.std::_Vector_base<long, std::allocator<long>>::_Vector_impl" = type { %"struct.std::_Vector_base<long, std::allocator<long>>::_Vector_impl_data" }
%"struct.std::_Vector_base<long, std::allocator<long>>::_Vector_impl_data" = type { ptr, ptr, ptr }
%"struct.perf::performance_metrics" = type <{ i64, i64, i32, i32, double, double, double, double, double, double, double, i32, [4 x i8] }>
%"class.perf::TestBase::_declareHelper" = type { ptr }
%"class.testing::WithParamInterface" = type { ptr }

@_ZTIN6cvtest7details21SkipTestExceptionBaseE = linkonce_odr hidden constant { ptr, ptr, ptr } { ptr getelementptr inbounds (ptr, ptr @_ZTVN10__cxxabiv120__si_class_type_infoE, i64 2), ptr @_ZTSN6cvtest7details21SkipTestExceptionBaseE, ptr @_ZTIN2cv9ExceptionE }, comdat, align 8
@.str.23 = private unnamed_addr constant [17 x i8] c"[     SKIP ] %s\0A\00", align 1

; Function Attrs: noinline noreturn nounwind uwtable
define linkonce_odr hidden void @__clang_call_terminate(ptr noundef %0) #8 comdat {
  %2 = call ptr @__cxa_begin_catch(ptr %0) #3
  call void @_ZSt9terminatev() #28
  unreachable
}

; Function Attrs: mustprogress uwtable
define hidden void @_ZN11opencv_test52MatInfo_Size_Size_resizeUpLinear_resizeUpLinear_Test5SetUpEv(ptr noundef nonnull align 8 dereferenceable(257) %0) unnamed_addr #6 align 2 personality ptr @__gxx_personality_v0 {
  %2 = alloca ptr, align 8
  %3 = alloca ptr, align 8
  %4 = alloca i32, align 4
  %5 = alloca ptr, align 8
  store ptr %0, ptr %2, align 8, !tbaa !14
  %6 = load ptr, ptr %2, align 8
  %7 = getelementptr inbounds nuw %"class.opencv_test::MatInfo_Size_Size_resizeUpLinear_resizeUpLinear_Test", ptr %6, i32 0, i32 1
  store i8 0, ptr %7, align 8, !tbaa !27
  invoke void @_ZN4perf8TestBase5SetUpEv(ptr noundef nonnull align 8 dereferenceable(248) %6)
          to label %8 unwind label %9

8:                                                ; preds = %1
  br label %28

9:                                                ; preds = %1
  %10 = landingpad { ptr, i32 }
          catch ptr @_ZTIN6cvtest7details21SkipTestExceptionBaseE
  %11 = extractvalue { ptr, i32 } %10, 0
  store ptr %11, ptr %3, align 8
  %12 = extractvalue { ptr, i32 } %10, 1
  store i32 %12, ptr %4, align 4
  br label %13

13:                                               ; preds = %9
  %14 = load i32, ptr %4, align 4
  %15 = call i32 @llvm.eh.typeid.for.p0(ptr @_ZTIN6cvtest7details21SkipTestExceptionBaseE) #3
  %16 = icmp eq i32 %14, %15
  br i1 %16, label %17, label %34

17:                                               ; preds = %13
  call void @llvm.lifetime.start.p0(i64 8, ptr %5) #3
  %18 = load ptr, ptr %3, align 8
  %19 = call ptr @__cxa_begin_catch(ptr %18) #3
  store ptr %19, ptr %5, align 8
  %20 = getelementptr inbounds nuw %"class.opencv_test::MatInfo_Size_Size_resizeUpLinear_resizeUpLinear_Test", ptr %6, i32 0, i32 1
  store i8 1, ptr %20, align 8, !tbaa !27
  %21 = load ptr, ptr %5, align 8, !tbaa !18
  %22 = load ptr, ptr %21, align 8, !tbaa !20
  %23 = getelementptr inbounds ptr, ptr %22, i64 2
  %24 = load ptr, ptr %23, align 8
  %25 = call noundef ptr %24(ptr noundef nonnull align 8 dereferenceable(148) %21) #3
  %26 = invoke i32 (ptr, ...) @printf(ptr noundef @.str.23, ptr noundef %25)
          to label %27 unwind label %29

27:                                               ; preds = %17
  call void @__cxa_end_catch()
  call void @llvm.lifetime.end.p0(i64 8, ptr %5) #3
  br label %28

28:                                               ; preds = %27, %8
  ret void

29:                                               ; preds = %17
  %30 = landingpad { ptr, i32 }
          cleanup
  %31 = extractvalue { ptr, i32 } %30, 0
  store ptr %31, ptr %3, align 8
  %32 = extractvalue { ptr, i32 } %30, 1
  store i32 %32, ptr %4, align 4
  invoke void @__cxa_end_catch()
          to label %33 unwind label %39

33:                                               ; preds = %29
  call void @llvm.lifetime.end.p0(i64 8, ptr %5) #3
  br label %34

34:                                               ; preds = %33, %13
  %35 = load ptr, ptr %3, align 8
  %36 = load i32, ptr %4, align 4
  %37 = insertvalue { ptr, i32 } poison, ptr %35, 0
  %38 = insertvalue { ptr, i32 } %37, i32 %36, 1
  resume { ptr, i32 } %38

39:                                               ; preds = %29
  %40 = landingpad { ptr, i32 }
          catch ptr null
  %41 = extractvalue { ptr, i32 } %40, 0
  call void @__clang_call_terminate(ptr %41) #28
  unreachable
}